target datalayout = "e-m:e-p270:32:32-p271:32:32-p272:64:64-i64:64-i128:128-f80:128-n8:16:32:64-S128"
target triple = "x86_64-pc-linux-gnu"

@.str.4 = private unnamed_addr constant [2 x i8] c"\0A\00", align 1
@.str.5 = private unnamed_addr constant [39 x i8] c"    lattice_gsr [options] [selection]\0A\00", align 1
@.str.6 = private unnamed_addr constant [74 x i8] c"Trim active low async resets connected to GSR and resolve GSR parameter,\0A\00", align 1
@.str.7 = private unnamed_addr constant [51 x i8] c"if a GSR or SGSR primitive is used in the design.\0A\00", align 1
@.str.8 = private unnamed_addr constant [72 x i8] c"If any cell has the GSR parameter set to \22AUTO\22, this will be resolved\0A\00", align 1
@.str.9 = private unnamed_addr constant [74 x i8] c"to \22ENABLED\22 if a GSR primitive is present and the (* nogsr *) attribute\0A\00", align 1
@.str.10 = private unnamed_addr constant [58 x i8] c"is not set, otherwise it will be resolved to \22DISABLED\22.\0A\00", align 1

; Function Attrs: mustprogress uwtable
define internal void @_ZN12_GLOBAL__N_114LatticeGsrPass4helpEv(ptr noundef nonnull align 8 dereferenceable(104) %0) unnamed_addr #4 align 2 {
  %2 = alloca ptr, align 8
  store ptr %0, ptr %2, align 8, !tbaa !6
  call void (ptr, ...) @_ZN5Yosys3logEPKcz(ptr noundef @.str.4)
  call void (ptr, ...) @_ZN5Yosys3logEPKcz(ptr noundef @.str.5)
  call void (ptr, ...) @_ZN5Yosys3logEPKcz(ptr noundef @.str.4)
  call void (ptr, ...) @_ZN5Yosys3logEPKcz(ptr noundef @.str.6)
  call void (ptr, ...) @_ZN5Yosys3logEPKcz(ptr noundef @.str.7)
  call void (ptr, ...) @_ZN5Yosys3logEPKcz(ptr noundef @.str.4)
  call void (ptr, ...) @_ZN5Yosys3logEPKcz(ptr noundef @.str.8)
  call void (ptr, ...) @_ZN5Yosys3logEPKcz(ptr noundef @.str.9)
  call void (ptr, ...) @_ZN5Yosys3logEPKcz(ptr noundef @.str.10)
  call void (ptr, ...) @_ZN5Yosys3logEPKcz(ptr noundef @.str.4)
  ret void
}